(iproject1
Fee
p0
(dp1
S'admn'
p2
I2000
sS'qt'
p3
I2
sS'recNo'
p4
I2
sS'c'
p5
S'10:11:37'
p6
sS'time1'
p7
cdatetime
datetime
p8
(S'\x07\xdf\x0b\x1c\n\x14%\x0c\xd5('
p9
tp10
Rp11
sS'chequeno'
p12
I566663
sS'mode'
p13
S'cheque'
p14
sS'date'
p15
cdatetime
date
p16
(S'\x07\xdf\x0b\x1c'
p17
tp18
Rp19
sS'tof'
p20
I9000
sS'bank'
p21
S'sbi'
p22
sb.